; Function Attrs: mustprogress uwtable
define noundef i32 @cvscript_colvar_communicateforces(ptr noundef %0, i32 noundef %1, ptr nocapture noundef readnone %2) local_unnamed_addr #0 personality ptr @__gxx_personality_v0 {
  %4 = tail call noundef ptr @_ZN12colvarmodule4mainEv()
  %5 = load ptr, ptr @_ZN12colvarmodule5proxyE, align 8
  %6 = getelementptr inbounds i8, ptr %5, i64 808
  %7 = load ptr, ptr %6, align 8
  %8 = tail call noundef i32 @_ZN12colvarscript16clear_str_resultEv(ptr noundef nonnull align 8 dereferenceable(304) %7)
  %9 = tail call noundef i32 @_ZN12colvarscript15check_cmd_nargsILNS_11Object_typeE1EEEiPKciii(ptr noundef nonnull align 8 dereferenceable(304) %7, ptr noundef nonnull @.str.22, i32 noundef %1, i32 noundef 0, i32 noundef 0)
  %.not = icmp eq i32 %9, 0
  br i1 %.not, label %10, label %11

10:                                               ; preds = %3
  tail call void @_ZN6colvar18communicate_forcesEv(ptr noundef nonnull align 8 dereferenceable(4624) %0)
  br label %11

11:                                               ; preds = %3, %10
  %.0 = phi i32 [ 0, %10 ], [ -1, %3 ]
  ret i32 %.0
}